target datalayout = "e-m:e-p270:32:32-p271:32:32-p272:64:64-i64:64-i128:128-f80:128-n8:16:32:64-S128"
target triple = "x86_64-pc-linux-gnu"

%"class.datalog::relation_signature" = type { %"class.datalog::tr_infrastructure<datalog::relation_traits>::signature_base" }
%"class.datalog::tr_infrastructure<datalog::relation_traits>::signature_base" = type { %class.ptr_vector }
%class.ptr_vector = type { %class.vector }
%class.vector = type { ptr }
%"class.datalog::tr_infrastructure<datalog::relation_traits>::base_ancestor" = type <{ ptr, ptr, %"class.datalog::relation_signature", i32, [4 x i8] }>

@_ZTIN7datalog13relation_baseE = external constant ptr
@_ZTIN7datalog13udoc_relationE = hidden constant { ptr, ptr, ptr } { ptr getelementptr inbounds (ptr, ptr @_ZTVN10__cxxabiv120__si_class_type_infoE, i64 2), ptr @_ZTSN7datalog13udoc_relationE, ptr @_ZTIN7datalog13relation_baseE }, align 8

; Function Attrs: mustprogress nounwind uwtable
define linkonce_odr hidden void @_ZN7datalog17tr_infrastructureINS_15relation_traitsEE7base_fnC2Ev(ptr noundef nonnull align 8 dereferenceable(8) %0) unnamed_addr #6 comdat align 2 {
  %2 = alloca ptr, align 8
  store ptr %0, ptr %2, align 8, !tbaa !688
  %3 = load ptr, ptr %2, align 8
  store ptr getelementptr inbounds inrange(-16, 16) ({ [4 x ptr] }, ptr @_ZTVN7datalog17tr_infrastructureINS_15relation_traitsEE7base_fnE, i32 0, i32 0, i32 2), ptr %3, align 8, !tbaa !12
  ret void
}

; Function Attrs: inlinehint mustprogress nounwind uwtable
define linkonce_odr hidden void @_ZN7datalog17tr_infrastructureINS_15relation_traitsEE7join_fnC2Ev(ptr noundef nonnull align 8 dereferenceable(8) %0) unnamed_addr #5 comdat align 2 {
  %2 = alloca ptr, align 8
  store ptr %0, ptr %2, align 8, !tbaa !684
  %3 = load ptr, ptr %2, align 8
  call void @_ZN7datalog17tr_infrastructureINS_15relation_traitsEE7base_fnC2Ev(ptr noundef nonnull align 8 dereferenceable(8) %3) #3
  store ptr getelementptr inbounds inrange(-16, 24) ({ [5 x ptr] }, ptr @_ZTVN7datalog17tr_infrastructureINS_15relation_traitsEE7join_fnE, i32 0, i32 0, i32 2), ptr %3, align 8, !tbaa !12
  ret void
}

; Function Attrs: mustprogress nounwind uwtable
define linkonce_odr hidden noundef nonnull align 8 dereferenceable(36) ptr @_ZNK7datalog17tr_infrastructureINS_15relation_traitsEE13base_ancestor10get_pluginEv(ptr noundef nonnull align 8 dereferenceable(28) %0) #6 comdat align 2 {
  %2 = alloca ptr, align 8
  store ptr %0, ptr %2, align 8, !tbaa !69
  %3 = load ptr, ptr %2, align 8
  %4 = getelementptr inbounds nuw %"class.datalog::tr_infrastructure<datalog::relation_traits>::base_ancestor", ptr %3, i32 0, i32 1
  %5 = load ptr, ptr %4, align 8, !tbaa !149
  ret ptr %5
}

; Function Attrs: mustprogress uwtable
define hidden noundef nonnull align 8 dereferenceable(128) ptr @_ZN7datalog11udoc_plugin3getERKNS_13relation_baseE(ptr noundef nonnull align 8 dereferenceable(28) %0) #4 align 2 {
  %2 = alloca ptr, align 8
  store ptr %0, ptr %2, align 8, !tbaa !22
  %3 = load ptr, ptr %2, align 8, !tbaa !22
  %4 = call ptr @__dynamic_cast(ptr %3, ptr @_ZTIN7datalog13relation_baseE, ptr @_ZTIN7datalog13udoc_relationE, i64 0) #3
  %5 = icmp eq ptr %4, null
  br i1 %5, label %6, label %7

6:                                                ; preds = %1
  call void @__cxa_bad_cast() #23
  unreachable

7:                                                ; preds = %1
  ret ptr %4
}

; Function Attrs: inlinehint mustprogress nounwind uwtable
define linkonce_odr hidden void @_ZN7datalog11udoc_plugin19join_project_and_fnC2Ev(ptr noundef nonnull align 8 dereferenceable(8) %0) unnamed_addr #5 comdat align 2 {
  %2 = alloca ptr, align 8
  store ptr %0, ptr %2, align 8, !tbaa !538
  %3 = load ptr, ptr %2, align 8
  call void @_ZN7datalog17tr_infrastructureINS_15relation_traitsEE7join_fnC2Ev(ptr noundef nonnull align 8 dereferenceable(8) %3) #3
  store ptr getelementptr inbounds inrange(-16, 24) ({ [5 x ptr] }, ptr @_ZTVN7datalog11udoc_plugin19join_project_and_fnE, i32 0, i32 0, i32 2), ptr %3, align 8, !tbaa !12
  ret void
}

; Function Attrs: mustprogress nounwind uwtable
define linkonce_odr hidden noundef i32 @_ZNK6vectorIP4sortLb0EjE4sizeEv(ptr noundef nonnull align 8 dereferenceable(8) %0) #6 comdat align 2 {
  %2 = alloca i32, align 4
  %3 = alloca ptr, align 8
  store ptr %0, ptr %3, align 8, !tbaa !31
  %4 = load ptr, ptr %3, align 8
  %5 = getelementptr inbounds nuw %class.vector, ptr %4, i32 0, i32 0
  %6 = load ptr, ptr %5, align 8, !tbaa !33
  %7 = icmp eq ptr %6, null
  br i1 %7, label %8, label %9

8:                                                ; preds = %1
  store i32 0, ptr %2, align 4
  br label %14

9:                                                ; preds = %1
  %10 = getelementptr inbounds nuw %class.vector, ptr %4, i32 0, i32 0
  %11 = load ptr, ptr %10, align 8, !tbaa !33
  %12 = getelementptr inbounds i32, ptr %11, i64 -1
  %13 = load i32, ptr %12, align 4, !tbaa !16
  store i32 %13, ptr %2, align 4
  br label %14

14:                                               ; preds = %9, %8
  %15 = load i32, ptr %2, align 4
  ret i32 %15
}

; Function Attrs: mustprogress nounwind uwtable
define linkonce_odr hidden noundef nonnull align 8 dereferenceable(8) ptr @_ZNK7datalog17tr_infrastructureINS_15relation_traitsEE13base_ancestor13get_signatureEv(ptr noundef nonnull align 8 dereferenceable(28) %0) #6 comdat align 2 {
  %2 = alloca ptr, align 8
  store ptr %0, ptr %2, align 8, !tbaa !69
  %3 = load ptr, ptr %2, align 8
  %4 = getelementptr inbounds nuw %"class.datalog::tr_infrastructure<datalog::relation_traits>::base_ancestor", ptr %3, i32 0, i32 2
  ret ptr %4
}

; Function Attrs: mustprogress nounwind uwtable
define linkonce_odr hidden noundef zeroext i1 @_ZNK7datalog17tr_infrastructureINS_15relation_traitsEE13plugin_object10check_kindERKNS_13relation_baseE(ptr noundef nonnull align 8 dereferenceable(32) %0, ptr noundef nonnull align 8 dereferenceable(28) %1) #6 comdat align 2 {
  %3 = alloca ptr, align 8
  %4 = alloca ptr, align 8
  store ptr %0, ptr %3, align 8, !tbaa !132
  store ptr %1, ptr %4, align 8, !tbaa !22
  %5 = load ptr, ptr %3, align 8
  %6 = load ptr, ptr %4, align 8, !tbaa !22
  %7 = call noundef nonnull align 8 dereferenceable(36) ptr @_ZNK7datalog17tr_infrastructureINS_15relation_traitsEE13base_ancestor10get_pluginEv(ptr noundef nonnull align 8 dereferenceable(28) %6)
  %8 = icmp eq ptr %7, %5
  ret i1 %8
}

; Function Attrs: mustprogress uwtable
define hidden noundef ptr @_ZN7datalog11udoc_plugin18mk_join_project_fnERKNS_13relation_baseES3_jPKjS5_jS5_(ptr noundef nonnull align 8 dereferenceable(129) %0, ptr noundef nonnull align 8 dereferenceable(28) %1, ptr noundef nonnull align 8 dereferenceable(28) %2, i32 noundef %3, ptr noundef %4, ptr noundef %5, i32 noundef %6, ptr noundef %7) unnamed_addr #4 align 2 {
  %9 = alloca ptr, align 8
  %10 = alloca ptr, align 8
  %11 = alloca ptr, align 8
  %12 = alloca ptr, align 8
  %13 = alloca i32, align 4
  %14 = alloca ptr, align 8
  %15 = alloca ptr, align 8
  %16 = alloca i32, align 4
  %17 = alloca ptr, align 8
  %18 = alloca i32, align 4
  %19 = alloca i32, align 4
  store ptr %0, ptr %10, align 8, !tbaa !8
  store ptr %1, ptr %11, align 8, !tbaa !22
  store ptr %2, ptr %12, align 8, !tbaa !22
  store i32 %3, ptr %13, align 4, !tbaa !16
  store ptr %4, ptr %14, align 8, !tbaa !39
  store ptr %5, ptr %15, align 8, !tbaa !39
  store i32 %6, ptr %16, align 4, !tbaa !16
  store ptr %7, ptr %17, align 8, !tbaa !39
  %20 = load ptr, ptr %10, align 8
  %21 = load ptr, ptr %11, align 8, !tbaa !22
  %22 = call noundef zeroext i1 @_ZNK7datalog17tr_infrastructureINS_15relation_traitsEE13plugin_object10check_kindERKNS_13relation_baseE(ptr noundef nonnull align 8 dereferenceable(32) %20, ptr noundef nonnull align 8 dereferenceable(28) %21)
  br i1 %22, label %23, label %26

23:                                               ; preds = %8
  %24 = load ptr, ptr %12, align 8, !tbaa !22
  %25 = call noundef zeroext i1 @_ZNK7datalog17tr_infrastructureINS_15relation_traitsEE13plugin_object10check_kindERKNS_13relation_baseE(ptr noundef nonnull align 8 dereferenceable(32) %20, ptr noundef nonnull align 8 dereferenceable(28) %24)
  br i1 %25, label %27, label %26

26:                                               ; preds = %23, %8
  store ptr null, ptr %9, align 8
  br label %90

27:                                               ; preds = %23
  %28 = load i32, ptr %13, align 4, !tbaa !16
  %29 = load i32, ptr %16, align 4, !tbaa !16
  %30 = icmp eq i32 %28, %29
  br i1 %30, label %31, label %78

31:                                               ; preds = %27
  %32 = load ptr, ptr %11, align 8, !tbaa !22
  %33 = call noundef nonnull align 8 dereferenceable(8) ptr @_ZNK7datalog17tr_infrastructureINS_15relation_traitsEE13base_ancestor13get_signatureEv(ptr noundef nonnull align 8 dereferenceable(28) %32)
  %34 = call noundef i32 @_ZNK6vectorIP4sortLb0EjE4sizeEv(ptr noundef nonnull align 8 dereferenceable(8) %33)
  %35 = load i32, ptr %13, align 4, !tbaa !16
  %36 = icmp eq i32 %34, %35
  br i1 %36, label %37, label %78

37:                                               ; preds = %31
  %38 = load ptr, ptr %12, align 8, !tbaa !22
  %39 = call noundef nonnull align 8 dereferenceable(8) ptr @_ZNK7datalog17tr_infrastructureINS_15relation_traitsEE13base_ancestor13get_signatureEv(ptr noundef nonnull align 8 dereferenceable(28) %38)
  %40 = call noundef i32 @_ZNK6vectorIP4sortLb0EjE4sizeEv(ptr noundef nonnull align 8 dereferenceable(8) %39)
  %41 = load i32, ptr %13, align 4, !tbaa !16
  %42 = icmp eq i32 %40, %41
  br i1 %42, label %43, label %78

43:                                               ; preds = %37
  call void @llvm.lifetime.start.p0(i64 4, ptr %18) #3
  store i32 0, ptr %18, align 4, !tbaa !16
  br label %44

44:                                               ; preds = %71, %43
  %45 = load i32, ptr %18, align 4, !tbaa !16
  %46 = load i32, ptr %16, align 4, !tbaa !16
  %47 = icmp ult i32 %45, %46
  br i1 %47, label %49, label %48

48:                                               ; preds = %44
  store i32 2, ptr %19, align 4
  br label %74

49:                                               ; preds = %44
  %50 = load ptr, ptr %17, align 8, !tbaa !39
  %51 = load i32, ptr %18, align 4, !tbaa !16
  %52 = zext i32 %51 to i64
  %53 = getelementptr inbounds nuw i32, ptr %50, i64 %52
  %54 = load i32, ptr %53, align 4, !tbaa !16
  %55 = load i32, ptr %18, align 4, !tbaa !16
  %56 = icmp ne i32 %54, %55
  br i1 %56, label %69, label %57

57:                                               ; preds = %49
  %58 = load ptr, ptr %14, align 8, !tbaa !39
  %59 = load i32, ptr %18, align 4, !tbaa !16
  %60 = zext i32 %59 to i64
  %61 = getelementptr inbounds nuw i32, ptr %58, i64 %60
  %62 = load i32, ptr %61, align 4, !tbaa !16
  %63 = load ptr, ptr %15, align 8, !tbaa !39
  %64 = load i32, ptr %18, align 4, !tbaa !16
  %65 = zext i32 %64 to i64
  %66 = getelementptr inbounds nuw i32, ptr %63, i64 %65
  %67 = load i32, ptr %66, align 4, !tbaa !16
  %68 = icmp ne i32 %62, %67
  br i1 %68, label %69, label %70

69:                                               ; preds = %57, %49
  store i32 5, ptr %19, align 4
  br label %74

70:                                               ; preds = %57
  br label %71

71:                                               ; preds = %70
  %72 = load i32, ptr %18, align 4, !tbaa !16
  %73 = add i32 %72, 1
  store i32 %73, ptr %18, align 4, !tbaa !16
  br label %44, !llvm.loop !537

74:                                               ; preds = %69, %48
  call void @llvm.lifetime.end.p0(i64 4, ptr %18) #3
  %75 = load i32, ptr %19, align 4
  switch i32 %75, label %92 [
    i32 2, label %76
    i32 5, label %79
  ]

76:                                               ; preds = %74
  %77 = call noalias noundef ptr @_ZN6memory8allocateEm(i64 noundef 8)
  call void @llvm.memset.p0.i64(ptr align 8 %77, i8 0, i64 8, i1 false)
  call void @_ZN7datalog11udoc_plugin19join_project_and_fnC2Ev(ptr noundef nonnull align 8 dereferenceable(8) %77) #3
  store ptr %77, ptr %9, align 8
  br label %90

78:                                               ; preds = %37, %31, %27
  br label %79

79:                                               ; preds = %78, %74
  %80 = call noalias noundef ptr @_ZN6memory8allocateEm(i64 noundef 56)
  %81 = load ptr, ptr %11, align 8, !tbaa !22
  %82 = call noundef nonnull align 8 dereferenceable(128) ptr @_ZN7datalog11udoc_plugin3getERKNS_13relation_baseE(ptr noundef nonnull align 8 dereferenceable(28) %81)
  %83 = load ptr, ptr %12, align 8, !tbaa !22
  %84 = call noundef nonnull align 8 dereferenceable(128) ptr @_ZN7datalog11udoc_plugin3getERKNS_13relation_baseE(ptr noundef nonnull align 8 dereferenceable(28) %83)
  %85 = load i32, ptr %13, align 4, !tbaa !16
  %86 = load ptr, ptr %14, align 8, !tbaa !39
  %87 = load ptr, ptr %15, align 8, !tbaa !39
  %88 = load i32, ptr %16, align 4, !tbaa !16
  %89 = load ptr, ptr %17, align 8, !tbaa !39
  call void @_ZN7datalog11udoc_plugin15join_project_fnC2ERKNS_13udoc_relationES4_jPKjS6_jS6_(ptr noundef nonnull align 8 dereferenceable(56) %80, ptr noundef nonnull align 8 dereferenceable(128) %82, ptr noundef nonnull align 8 dereferenceable(128) %84, i32 noundef %85, ptr noundef %86, ptr noundef %87, i32 noundef %88, ptr noundef %89)
  store ptr %80, ptr %9, align 8
  br label %90

90:                                               ; preds = %79, %76, %26
  %91 = load ptr, ptr %9, align 8
  ret ptr %91

92:                                               ; preds = %74
  unreachable
}