; Function Attrs: mustprogress uwtable
define hidden noundef ptr @_ZN7datalog11udoc_plugin18mk_join_project_fnERKNS_13relation_baseES3_jPKjS5_jS5_(ptr noundef nonnull readnone align 8 captures(address) dereferenceable(129) %0, ptr noundef nonnull align 8 dereferenceable(28) %1, ptr noundef nonnull align 8 dereferenceable(28) %2, i32 noundef %3, ptr noundef %4, ptr noundef %5, i32 noundef %6, ptr noundef %7) unnamed_addr #3 align 2 {
  %9 = getelementptr inbounds nuw i8, ptr %1, i64 8
  %10 = load ptr, ptr %9, align 8, !tbaa !167
  %11 = icmp eq ptr %10, %0
  %12 = getelementptr inbounds nuw i8, ptr %2, i64 8
  %13 = load ptr, ptr %12, align 8
  %14 = icmp eq ptr %13, %0
  %or.cond = select i1 %11, i1 %14, i1 false
  br i1 %or.cond, label %15, label %50

15:                                               ; preds = %8
  %16 = icmp eq i32 %3, %6
  br i1 %16, label %17, label %.thread

17:                                               ; preds = %15
  %18 = getelementptr inbounds nuw i8, ptr %1, i64 16
  %19 = load ptr, ptr %18, align 8, !tbaa !10
  %20 = icmp eq ptr %19, null
  br i1 %20, label %_ZNK6vectorIP4sortLb0EjE4sizeEv.exit, label %21

21:                                               ; preds = %17
  %22 = getelementptr inbounds i8, ptr %19, i64 -4
  %23 = load i32, ptr %22, align 4, !tbaa !14
  br label %_ZNK6vectorIP4sortLb0EjE4sizeEv.exit

_ZNK6vectorIP4sortLb0EjE4sizeEv.exit:             ; preds = %17, %21
  %.0.i = phi i32 [ %23, %21 ], [ 0, %17 ]
  %24 = icmp eq i32 %.0.i, %3
  br i1 %24, label %25, label %.thread

25:                                               ; preds = %_ZNK6vectorIP4sortLb0EjE4sizeEv.exit
  %26 = getelementptr inbounds nuw i8, ptr %2, i64 16
  %27 = load ptr, ptr %26, align 8, !tbaa !10
  %28 = icmp eq ptr %27, null
  br i1 %28, label %_ZNK6vectorIP4sortLb0EjE4sizeEv.exit33, label %29

29:                                               ; preds = %25
  %30 = getelementptr inbounds i8, ptr %27, i64 -4
  %31 = load i32, ptr %30, align 4, !tbaa !14
  br label %_ZNK6vectorIP4sortLb0EjE4sizeEv.exit33

_ZNK6vectorIP4sortLb0EjE4sizeEv.exit33:           ; preds = %25, %29
  %.0.i32 = phi i32 [ %31, %29 ], [ 0, %25 ]
  %32 = icmp eq i32 %.0.i32, %3
  br i1 %32, label %.preheader, label %.thread

.preheader:                                       ; preds = %_ZNK6vectorIP4sortLb0EjE4sizeEv.exit33
  %.not41 = icmp eq i32 %3, 0
  br i1 %.not41, label %._crit_edge, label %.lr.ph.preheader

.lr.ph.preheader:                                 ; preds = %.preheader
  %wide.trip.count = zext i32 %3 to i64
  br label %.lr.ph

33:                                               ; preds = %37
  %indvars.iv.next = add nuw nsw i64 %indvars.iv, 1
  %exitcond.not = icmp eq i64 %indvars.iv.next, %wide.trip.count
  br i1 %exitcond.not, label %._crit_edge, label %.lr.ph, !llvm.loop !497

.lr.ph:                                           ; preds = %.lr.ph.preheader, %33
  %indvars.iv = phi i64 [ 0, %.lr.ph.preheader ], [ %indvars.iv.next, %33 ]
  %34 = getelementptr inbounds nuw i32, ptr %7, i64 %indvars.iv
  %35 = load i32, ptr %34, align 4, !tbaa !14
  %36 = zext i32 %35 to i64
  %.not = icmp eq i64 %indvars.iv, %36
  br i1 %.not, label %37, label %.thread

37:                                               ; preds = %.lr.ph
  %38 = getelementptr inbounds nuw i32, ptr %4, i64 %indvars.iv
  %39 = load i32, ptr %38, align 4, !tbaa !14
  %40 = getelementptr inbounds nuw i32, ptr %5, i64 %indvars.iv
  %41 = load i32, ptr %40, align 4, !tbaa !14
  %.not31 = icmp eq i32 %39, %41
  br i1 %.not31, label %33, label %.thread

._crit_edge:                                      ; preds = %33, %.preheader
  %42 = tail call noalias noundef ptr @_ZN6memory8allocateEm(i64 noundef 8)
  store ptr getelementptr inbounds nuw inrange(-16, 24) (i8, ptr @_ZTVN7datalog11udoc_plugin19join_project_and_fnE, i64 16), ptr %42, align 8, !tbaa !3
  br label %50

.thread:                                          ; preds = %.lr.ph, %37, %15, %_ZNK6vectorIP4sortLb0EjE4sizeEv.exit, %_ZNK6vectorIP4sortLb0EjE4sizeEv.exit33
  %43 = tail call noalias noundef ptr @_ZN6memory8allocateEm(i64 noundef 56)
  %44 = tail call ptr @__dynamic_cast(ptr nonnull readonly align 8 dereferenceable(28) %1, ptr nonnull @_ZTIN7datalog13relation_baseE, ptr nonnull @_ZTIN7datalog13udoc_relationE, i64 0) #24
  %45 = icmp eq ptr %44, null
  br i1 %45, label %46, label %_ZN7datalog11udoc_plugin3getERKNS_13relation_baseE.exit

46:                                               ; preds = %.thread
  tail call void @__cxa_bad_cast() #25
  unreachable

_ZN7datalog11udoc_plugin3getERKNS_13relation_baseE.exit: ; preds = %.thread
  %47 = tail call ptr @__dynamic_cast(ptr nonnull readonly align 8 dereferenceable(28) %2, ptr nonnull @_ZTIN7datalog13relation_baseE, ptr nonnull @_ZTIN7datalog13udoc_relationE, i64 0) #24
  %48 = icmp eq ptr %47, null
  br i1 %48, label %49, label %_ZN7datalog11udoc_plugin3getERKNS_13relation_baseE.exit34

49:                                               ; preds = %_ZN7datalog11udoc_plugin3getERKNS_13relation_baseE.exit
  tail call void @__cxa_bad_cast() #25
  unreachable

_ZN7datalog11udoc_plugin3getERKNS_13relation_baseE.exit34: ; preds = %_ZN7datalog11udoc_plugin3getERKNS_13relation_baseE.exit
  tail call void @_ZN7datalog11udoc_plugin15join_project_fnC2ERKNS_13udoc_relationES4_jPKjS6_jS6_(ptr noundef nonnull align 8 dereferenceable(56) %43, ptr noundef nonnull align 8 dereferenceable(128) %44, ptr noundef nonnull align 8 dereferenceable(128) %47, i32 noundef %3, ptr noundef %4, ptr noundef %5, i32 noundef %6, ptr noundef %7)
  br label %50

50:                                               ; preds = %8, %_ZN7datalog11udoc_plugin3getERKNS_13relation_baseE.exit34, %._crit_edge
  %.028 = phi ptr [ %43, %_ZN7datalog11udoc_plugin3getERKNS_13relation_baseE.exit34 ], [ %42, %._crit_edge ], [ null, %8 ]
  ret ptr %.028
}